target datalayout = "e-m:e-p270:32:32-p271:32:32-p272:64:64-i64:64-i128:128-f80:128-n8:16:32:64-S128"
target triple = "x86_64-pc-linux-gnu"

%class.symbol = type { ptr }
%class.ast = type { i32, i32, i32, i32 }
%class.decl = type { %class.ast, %class.symbol, ptr }

; Function Attrs: mustprogress nounwind uwtable
define linkonce_odr hidden noundef ptr @_ZNK6symbol8bare_strEv(ptr noundef nonnull align 8 dereferenceable(8) %0) #5 comdat align 2 {
  %2 = alloca ptr, align 8
  store ptr %0, ptr %2, align 8, !tbaa !169
  %3 = load ptr, ptr %2, align 8
  %4 = getelementptr inbounds nuw %class.symbol, ptr %3, i32 0, i32 0
  %5 = load ptr, ptr %4, align 8, !tbaa !171
  ret ptr %5
}

; Function Attrs: mustprogress nounwind uwtable
define linkonce_odr hidden noundef nonnull align 8 dereferenceable(8) ptr @_ZNK4decl8get_nameEv(ptr noundef nonnull align 8 dereferenceable(32) %0) #5 comdat align 2 {
  %2 = alloca ptr, align 8
  store ptr %0, ptr %2, align 8, !tbaa !166
  %3 = load ptr, ptr %2, align 8
  %4 = getelementptr inbounds nuw %class.decl, ptr %3, i32 0, i32 1
  ret ptr %4
}

; Function Attrs: mustprogress uwtable
define hidden noundef zeroext i1 @_ZN18expr_pattern_match6is_varEP9func_decl(ptr noundef nonnull align 8 dereferenceable(64) %0, ptr noundef %1) #4 align 2 {
  %3 = alloca ptr, align 8
  %4 = alloca ptr, align 8
  %5 = alloca ptr, align 8
  store ptr %0, ptr %3, align 8, !tbaa !3
  store ptr %1, ptr %4, align 8, !tbaa !133
  call void @llvm.lifetime.start.p0(i64 8, ptr %5) #3
  %6 = load ptr, ptr %4, align 8, !tbaa !133
  %7 = call noundef nonnull align 8 dereferenceable(8) ptr @_ZNK4decl8get_nameEv(ptr noundef nonnull align 8 dereferenceable(32) %6)
  %8 = call noundef ptr @_ZNK6symbol8bare_strEv(ptr noundef nonnull align 8 dereferenceable(8) %7)
  store ptr %8, ptr %5, align 8, !tbaa !151
  %9 = load ptr, ptr %5, align 8, !tbaa !151
  %10 = icmp ne ptr %9, null
  br i1 %10, label %11, label %16

11:                                               ; preds = %2
  %12 = load ptr, ptr %5, align 8, !tbaa !151
  %13 = load i8, ptr %12, align 1, !tbaa !152
  %14 = sext i8 %13 to i32
  %15 = icmp eq i32 %14, 63
  br label %16

16:                                               ; preds = %11, %2
  %17 = phi i1 [ false, %2 ], [ %15, %11 ]
  call void @llvm.lifetime.end.p0(i64 8, ptr %5) #3
  ret i1 %17
}