; Function Attrs: mustprogress nofree norecurse nosync nounwind willreturn memory(read, inaccessiblemem: none) uwtable
define hidden noundef zeroext i1 @_ZN18expr_pattern_match6is_varEP9func_decl(ptr noundef nonnull readnone align 8 captures(none) dereferenceable(64) %0, ptr noundef readonly captures(none) %1) local_unnamed_addr #8 align 2 {
  %3 = getelementptr inbounds nuw i8, ptr %1, i64 16
  %4 = load ptr, ptr %3, align 8, !tbaa !154
  %.not = icmp eq ptr %4, null
  br i1 %.not, label %8, label %5

5:                                                ; preds = %2
  %6 = load i8, ptr %4, align 1, !tbaa !161
  %7 = icmp eq i8 %6, 63
  br label %8

8:                                                ; preds = %5, %2
  %9 = phi i1 [ false, %2 ], [ %7, %5 ]
  ret i1 %9
}